; Function Attrs: mustprogress uwtable
define void @_ZNK4cvc56parser14GetInfoCommand11printResultEPNS_6SolverERSo(ptr noundef nonnull align 8 dereferenceable(80) %0, ptr readnone captures(none) %1, ptr noundef nonnull align 8 dereferenceable(8) %2) unnamed_addr #3 align 2 {
  %4 = getelementptr inbounds nuw i8, ptr %0, i64 48
  %5 = tail call noundef i32 @_ZNKSt7__cxx1112basic_stringIcSt11char_traitsIcESaIcEE7compareEPKc(ptr noundef nonnull align 8 dereferenceable(32) %4, ptr noundef nonnull @.str.42) #33
  %.not = icmp eq i32 %5, 0
  br i1 %.not, label %30, label %6

6:                                                ; preds = %3
  %7 = load ptr, ptr %4, align 8, !tbaa !20
  %8 = getelementptr inbounds nuw i8, ptr %0, i64 56
  %9 = load i64, ptr %8, align 8, !tbaa !24
  %10 = tail call noundef nonnull align 8 dereferenceable(8) ptr @_ZSt16__ostream_insertIcSt11char_traitsIcEERSt13basic_ostreamIT_T0_ES6_PKS3_l(ptr noundef nonnull align 8 dereferenceable(8) %2, ptr noundef %7, i64 noundef %9)
  %11 = load ptr, ptr %10, align 8, !tbaa !6
  %12 = getelementptr i8, ptr %11, i64 -24
  %13 = load i64, ptr %12, align 8
  %14 = getelementptr inbounds i8, ptr %10, i64 %13
  %15 = getelementptr inbounds nuw i8, ptr %14, i64 240
  %16 = load ptr, ptr %15, align 8, !tbaa !78
  %.not.i.i.i = icmp eq ptr %16, null
  br i1 %.not.i.i.i, label %17, label %_ZSt13__check_facetISt5ctypeIcEERKT_PS3_.exit.i.i

17:                                               ; preds = %6
  tail call void @_ZSt16__throw_bad_castv() #36
  unreachable

_ZSt13__check_facetISt5ctypeIcEERKT_PS3_.exit.i.i: ; preds = %6
  %18 = getelementptr inbounds nuw i8, ptr %16, i64 56
  %19 = load i8, ptr %18, align 8, !tbaa !86
  %.not.i1.i.i = icmp eq i8 %19, 0
  br i1 %.not.i1.i.i, label %23, label %20

20:                                               ; preds = %_ZSt13__check_facetISt5ctypeIcEERKT_PS3_.exit.i.i
  %21 = getelementptr inbounds nuw i8, ptr %16, i64 67
  %22 = load i8, ptr %21, align 1, !tbaa !3
  br label %_ZSt4endlIcSt11char_traitsIcEERSt13basic_ostreamIT_T0_ES6_.exit

23:                                               ; preds = %_ZSt13__check_facetISt5ctypeIcEERKT_PS3_.exit.i.i
  tail call void @_ZNKSt5ctypeIcE13_M_widen_initEv(ptr noundef nonnull align 8 dereferenceable(570) %16)
  %24 = load ptr, ptr %16, align 8, !tbaa !6
  %25 = getelementptr inbounds nuw i8, ptr %24, i64 48
  %26 = load ptr, ptr %25, align 8
  %27 = tail call noundef signext i8 %26(ptr noundef nonnull align 8 dereferenceable(570) %16, i8 noundef signext 10)
  br label %_ZSt4endlIcSt11char_traitsIcEERSt13basic_ostreamIT_T0_ES6_.exit

_ZSt4endlIcSt11char_traitsIcEERSt13basic_ostreamIT_T0_ES6_.exit: ; preds = %20, %23
  %.0.i.i.i = phi i8 [ %22, %20 ], [ %27, %23 ]
  %28 = tail call noundef nonnull align 8 dereferenceable(8) ptr @_ZNSo3putEc(ptr noundef nonnull align 8 dereferenceable(8) %10, i8 noundef signext %.0.i.i.i)
  %29 = tail call noundef nonnull align 8 dereferenceable(8) ptr @_ZNSo5flushEv(ptr noundef nonnull align 8 dereferenceable(8) %28)
  br label %30

30:                                               ; preds = %_ZSt4endlIcSt11char_traitsIcEERSt13basic_ostreamIT_T0_ES6_.exit, %3
  ret void
}